(dp0
S'${brg_bng_subnet}'
p1
S'vcpe_net_brg_bng_subnet_201809280249'
p2
sS'${public_net_id}'
p3
S'234f8767-7013-4256-9471-ca34294c4c5c'
p4
sS'${cpe_signal_subnet}'
p5
S'vcpe_net_cpe_signal_subnet_201809280249'
p6
sS'${oam_onap_subnet}'
p7
S'oam_onap_Hckd'
p8
sS'${brg_bng_net}'
p9
S'vcpe_net_brg_bng_201809280249'
p10
sS'${pub_key}'
p11
S'ssh-rsa AAAAB3NzaC1yc2EAAAADAQABAAABAQDKXDgoo3+WOqcUG8/5uUbk81+yczgwC4Y8ywTmuQqbNxlY1oQ0YxdMUqUnhitSXs5S/yRuAVOYHwGg2mCs20oAINrP+mxBI544AMIb9itPjCtgqtE2EWo6MmnFGbHB4Sx3XioE7F4VPsh7japsIwzOjbrQe+Mua1TGQ5d4nfEOQaaglXLLPFfuc7WbhbJbK6Q7rHqZfRcOwAMXgDoBqlyqKeiKwnumddo2RyNT8ljYmvB6buz7KnMinzo7qB0uktVT05FH9Rg0CTWH5norlG5qXgP2aukL0gk1ph8iAt7uYLf1ktp+LJI2gaF6L0/qli9EmVCSLr1uJ38Q8CBflhkh'
p12
sS'${public_net}'
p13
S'public'
p14
sS'${mux_gw_subnet}'
p15
S'vcpe_net_mux_gw_subnet_201809280249'
p16
sS'${cpe_signal_net}'
p17
S'vcpe_net_cpe_signal_201809280249'
p18
sS'${cpe_public_subnet}'
p19
S'vcpe_net_cpe_public_subnet_201809280249'
p20
sS'${bng_mux_net}'
p21
S'vcpe_net_bng_mux_201809280249'
p22
sS'${cpe_public_net}'
p23
S'vcpe_net_cpe_public_201809280249'
p24
sS'${mux_gw_net}'
p25
S'vcpe_net_mux_gw_201809280249'
p26
sS'${bng_mux_subnet}'
p27
S'vcpe_net_bng_mux_subnet_201809280249'
p28
sS'${oam_onap_net}'
p29
g8
s.