(dp0
S'brg'
p1
Vd2bc1980-3625-405d-af97-f85d6905f7f8
p2
sS'gmux'
p3
V2180f379-0f8c-4248-9b25-d7fc0c8b52c5
p4
sS'bng'
p5
V281cee80-4144-4867-a566-705c94c97654
p6
sS'infra'
p7
Vccf179fe-4112-440b-83f6-9fdd9b81a0b2
p8
s.